; Function Attrs: nounwind uwtable
define dso_local void @replication_yyset_column(i32 noundef %0, ptr noundef readonly captures(none) %1) local_unnamed_addr #0 {
  %3 = getelementptr inbounds nuw i8, ptr %1, i64 40
  %4 = load ptr, ptr %3, align 8
  %.not = icmp eq ptr %4, null
  br i1 %.not, label %10, label %5

5:                                                ; preds = %2
  %6 = getelementptr inbounds nuw i8, ptr %1, i64 24
  %7 = load i64, ptr %6, align 8
  %8 = getelementptr inbounds nuw ptr, ptr %4, i64 %7
  %9 = load ptr, ptr %8, align 8
  %.not8 = icmp eq ptr %9, null
  br i1 %.not8, label %10, label %11

10:                                               ; preds = %2, %5
  tail call fastcc void @yy_fatal_error(ptr noundef nonnull @.str.10) #18
  unreachable

11:                                               ; preds = %5
  %12 = getelementptr inbounds nuw i8, ptr %9, i64 48
  store i32 %0, ptr %12, align 8
  ret void
}